target datalayout = "e-m:e-p270:32:32-p271:32:32-p272:64:64-i64:64-i128:128-f80:128-n8:16:32:64-S128"
target triple = "x86_64-pc-linux-gnu"

; Function Attrs: nounwind uwtable
define internal i32 @handle_enter_key(ptr noundef %0, ptr noundef %1, ptr noundef %2) #0 {
  %4 = alloca i32, align 4
  %5 = alloca ptr, align 8
  %6 = alloca ptr, align 8
  %7 = alloca ptr, align 8
  %8 = alloca i32, align 4
  %9 = alloca i32, align 4
  store ptr %0, ptr %5, align 8, !tbaa !6
  store ptr %1, ptr %6, align 8, !tbaa !137
  store ptr %2, ptr %7, align 8, !tbaa !61
  call void @llvm.lifetime.start.p0(i64 4, ptr %8) #10
  %10 = load ptr, ptr %6, align 8, !tbaa !137
  %11 = call i32 @gdk_event_get_keyval(ptr noundef %10, ptr noundef %8)
  %12 = load i32, ptr %8, align 4, !tbaa !57
  %13 = icmp eq i32 %12, 65293
  br i1 %13, label %17, label %14

14:                                               ; preds = %3
  %15 = load i32, ptr %8, align 4, !tbaa !57
  %16 = icmp eq i32 %15, 65421
  br i1 %16, label %17, label %18

17:                                               ; preds = %14, %3
  store i32 1, ptr %4, align 4
  store i32 1, ptr %9, align 4
  br label %19

18:                                               ; preds = %14
  store i32 0, ptr %4, align 4
  store i32 1, ptr %9, align 4
  br label %19

19:                                               ; preds = %18, %17
  call void @llvm.lifetime.end.p0(i64 4, ptr %8) #10
  %20 = load i32, ptr %4, align 4
  ret i32 %20
}