; Function Attrs: nounwind uwtable
define internal range(i32 0, 2) i32 @handle_enter_key(ptr readnone captures(none) %0, ptr noundef %1, ptr readnone captures(none) %2) #0 {
  %4 = alloca i32, align 4
  call void @llvm.lifetime.start.p0(i64 4, ptr nonnull %4) #12
  %5 = call i32 @gdk_event_get_keyval(ptr noundef %1, ptr noundef nonnull %4) #12
  %6 = load i32, ptr %4, align 4, !tbaa !62
  %7 = and i32 %6, -129
  %or.cond = icmp eq i32 %7, 65293
  %. = zext i1 %or.cond to i32
  call void @llvm.lifetime.end.p0(i64 4, ptr nonnull %4) #12
  ret i32 %.
}